; Function Attrs: mustprogress nofree nounwind willreturn memory(read) uwtable
define internal noundef zeroext i1 @_ZN4llvm12function_refIFbRKNS_5APIntEEE11callback_fnIZL41foldMinimumOverTrailingOrLeadingZeroCountILj65EEPNS_5ValueES9_S9_RKNS_10DataLayoutERNS_9IRBuilderINS_12TargetFolderENS_25IRBuilderCallbackInserterEEEEUlRT_E_EEblS3_(i64 noundef %0, ptr noundef nonnull align 8 dereferenceable(12) %1) #8 align 2 {
  %3 = inttoptr i64 %0 to ptr
  %.val = load i32, ptr %3, align 4
  %4 = zext i32 %.val to i64
  %5 = getelementptr inbounds nuw i8, ptr %1, i64 8
  %6 = load i32, ptr %5, align 8
  %7 = icmp ult i32 %6, 65
  br i1 %7, label %11, label %_ZNK4llvm5APInt13getActiveBitsEv.exit.i.i

_ZNK4llvm5APInt13getActiveBitsEv.exit.i.i:        ; preds = %2
  %8 = tail call noundef i32 @_ZNK4llvm5APInt25countLeadingZerosSlowCaseEv(ptr noundef nonnull align 8 dereferenceable(12) %1) #27
  %9 = sub i32 %6, %8
  %10 = icmp ult i32 %9, 65
  br i1 %10, label %11, label %_ZZL41foldMinimumOverTrailingOrLeadingZeroCountILj65EEPN4llvm5ValueES2_S2_RKNS0_10DataLayoutERNS0_9IRBuilderINS0_12TargetFolderENS0_25IRBuilderCallbackInserterEEEENKUlRT_E_clIKNS0_5APIntEEEDaSC_.exit

11:                                               ; preds = %_ZNK4llvm5APInt13getActiveBitsEv.exit.i.i, %2
  %12 = load ptr, ptr %1, align 8
  %.0.in.i.i.i = select i1 %7, ptr %1, ptr %12
  %.0.i.i.i = load i64, ptr %.0.in.i.i.i, align 8
  %13 = icmp ult i64 %.0.i.i.i, %4
  br label %_ZZL41foldMinimumOverTrailingOrLeadingZeroCountILj65EEPN4llvm5ValueES2_S2_RKNS0_10DataLayoutERNS0_9IRBuilderINS0_12TargetFolderENS0_25IRBuilderCallbackInserterEEEENKUlRT_E_clIKNS0_5APIntEEEDaSC_.exit

_ZZL41foldMinimumOverTrailingOrLeadingZeroCountILj65EEPN4llvm5ValueES2_S2_RKNS0_10DataLayoutERNS0_9IRBuilderINS0_12TargetFolderENS0_25IRBuilderCallbackInserterEEEENKUlRT_E_clIKNS0_5APIntEEEDaSC_.exit: ; preds = %_ZNK4llvm5APInt13getActiveBitsEv.exit.i.i, %11
  %14 = phi i1 [ false, %_ZNK4llvm5APInt13getActiveBitsEv.exit.i.i ], [ %13, %11 ]
  ret i1 %14
}